; Function Attrs: nounwind uwtable
define hidden void @Curl_ssl_session_destroy(ptr noundef %0) local_unnamed_addr #0 {
  %.not = icmp eq ptr %0, null
  br i1 %.not, label %23, label %2

2:                                                ; preds = %1
  %3 = getelementptr inbounds nuw i8, ptr %0, i64 64
  %4 = tail call ptr @Curl_node_llist(ptr noundef nonnull %3) #9
  %.not4 = icmp eq ptr %4, null
  br i1 %.not4, label %6, label %5

5:                                                ; preds = %2
  tail call void @Curl_node_remove(ptr noundef nonnull %3) #9
  br label %23

6:                                                ; preds = %2
  %7 = load ptr, ptr %0, align 8, !tbaa !19
  %.not.i.i = icmp eq ptr %7, null
  br i1 %.not.i.i, label %10, label %8

8:                                                ; preds = %6
  %9 = load ptr, ptr @Curl_cfree, align 8, !tbaa !3
  tail call void %9(ptr noundef nonnull %7) #9
  store ptr null, ptr %0, align 8, !tbaa !19
  br label %10

10:                                               ; preds = %8, %6
  %11 = getelementptr inbounds nuw i8, ptr %0, i64 8
  store i64 0, ptr %11, align 8, !tbaa !20
  %12 = getelementptr inbounds nuw i8, ptr %0, i64 48
  %13 = load ptr, ptr %12, align 8, !tbaa !22
  %.not13.i.i = icmp eq ptr %13, null
  br i1 %.not13.i.i, label %cf_ssl_scache_sesssion_ldestroy.exit, label %14

14:                                               ; preds = %10
  %15 = load ptr, ptr @Curl_cfree, align 8, !tbaa !3
  tail call void %15(ptr noundef nonnull %13) #9
  store ptr null, ptr %12, align 8, !tbaa !22
  br label %cf_ssl_scache_sesssion_ldestroy.exit

cf_ssl_scache_sesssion_ldestroy.exit:             ; preds = %10, %14
  %16 = getelementptr inbounds nuw i8, ptr %0, i64 56
  store i64 0, ptr %16, align 8, !tbaa !23
  %17 = getelementptr inbounds nuw i8, ptr %0, i64 24
  store i32 0, ptr %17, align 8, !tbaa !9
  %18 = getelementptr inbounds nuw i8, ptr %0, i64 16
  store i64 0, ptr %18, align 8, !tbaa !17
  %19 = load ptr, ptr @Curl_cfree, align 8, !tbaa !3
  %20 = getelementptr inbounds nuw i8, ptr %0, i64 32
  %21 = load ptr, ptr %20, align 8, !tbaa !21
  tail call void %19(ptr noundef %21) #9
  store ptr null, ptr %20, align 8, !tbaa !21
  %22 = load ptr, ptr @Curl_cfree, align 8, !tbaa !3
  tail call void %22(ptr noundef nonnull %0) #9
  br label %23

23:                                               ; preds = %5, %cf_ssl_scache_sesssion_ldestroy.exit, %1
  ret void
}